; Function Attrs: nounwind uwtable
define noalias ptr @collectUserGivenDisjunctiveMonotoneSignals(ptr noundef readonly captures(none) %0) local_unnamed_addr #2 {
  %calloc.i = tail call noalias noundef dereferenceable_or_null(16) ptr @calloc(i64 1, i64 16)
  %2 = getelementptr i8, ptr %0, i64 48
  %.val1214 = load ptr, ptr %2, align 8, !tbaa !50
  %3 = getelementptr i8, ptr %.val1214, i64 4
  %.val12.val15 = load i32, ptr %3, align 4, !tbaa !26
  %4 = icmp sgt i32 %.val12.val15, 0
  br i1 %4, label %.lr.ph, label %.critedge

.lr.ph:                                           ; preds = %1
  %5 = getelementptr inbounds nuw i8, ptr %calloc.i, i64 4
  %.phi.trans.insert.i = getelementptr inbounds nuw i8, ptr %calloc.i, i64 8
  br label %6

6:                                                ; preds = %.lr.ph, %43
  %7 = phi i32 [ 0, %.lr.ph ], [ %44, %43 ]
  %8 = phi i32 [ 0, %.lr.ph ], [ %45, %43 ]
  %indvars.iv = phi i64 [ 0, %.lr.ph ], [ %indvars.iv.next, %43 ]
  %.val1217 = phi ptr [ %.val1214, %.lr.ph ], [ %.val12, %43 ]
  %9 = getelementptr i8, ptr %.val1217, i64 8
  %.val13.val = load ptr, ptr %9, align 8, !tbaa !21
  %10 = getelementptr inbounds nuw ptr, ptr %.val13.val, i64 %indvars.iv
  %11 = load ptr, ptr %10, align 8, !tbaa !23
  %12 = tail call ptr @Abc_ObjName(ptr noundef %11) #17
  %13 = tail call ptr @strstr(ptr noundef nonnull dereferenceable(1) %12, ptr noundef nonnull dereferenceable(1) @.str.6) #18
  %.not = icmp eq ptr %13, null
  br i1 %.not, label %43, label %14

14:                                               ; preds = %6
  %15 = trunc nuw nsw i64 %indvars.iv to i32
  %16 = tail call ptr @createSingletonIntVector(i32 noundef %15) #17
  %17 = icmp eq i32 %8, %7
  br i1 %17, label %18, label %.Vec_PtrGrow.exit11_crit_edge.i

.Vec_PtrGrow.exit11_crit_edge.i:                  ; preds = %14
  %.pre.i = load ptr, ptr %.phi.trans.insert.i, align 8, !tbaa !21
  br label %Vec_PtrPush.exit

18:                                               ; preds = %14
  %19 = icmp slt i32 %7, 16
  br i1 %19, label %20, label %27

20:                                               ; preds = %18
  %21 = load ptr, ptr %.phi.trans.insert.i, align 8, !tbaa !21
  %.not9.i.i = icmp eq ptr %21, null
  br i1 %.not9.i.i, label %24, label %22

22:                                               ; preds = %20
  %23 = tail call dereferenceable_or_null(128) ptr @realloc(ptr noundef nonnull %21, i64 noundef 128) #21
  br label %Vec_PtrGrow.exit.i

24:                                               ; preds = %20
  %25 = tail call noalias dereferenceable_or_null(128) ptr @malloc(i64 noundef 128) #19
  br label %Vec_PtrGrow.exit.i

Vec_PtrGrow.exit.i:                               ; preds = %24, %22
  %26 = phi ptr [ %23, %22 ], [ %25, %24 ]
  store ptr %26, ptr %.phi.trans.insert.i, align 8, !tbaa !21
  store i32 16, ptr %calloc.i, align 8, !tbaa !63
  br label %Vec_PtrPush.exit

27:                                               ; preds = %18
  %28 = shl nuw nsw i32 %7, 1
  %29 = load ptr, ptr %.phi.trans.insert.i, align 8, !tbaa !21
  %.not9.i10.i = icmp eq ptr %29, null
  %30 = zext nneg i32 %28 to i64
  %31 = shl nuw nsw i64 %30, 3
  br i1 %.not9.i10.i, label %34, label %32

32:                                               ; preds = %27
  %33 = tail call ptr @realloc(ptr noundef nonnull %29, i64 noundef %31) #21
  br label %36

34:                                               ; preds = %27
  %35 = tail call noalias ptr @malloc(i64 noundef %31) #19
  br label %36

36:                                               ; preds = %34, %32
  %37 = phi ptr [ %33, %32 ], [ %35, %34 ]
  store ptr %37, ptr %.phi.trans.insert.i, align 8, !tbaa !21
  store i32 %28, ptr %calloc.i, align 8, !tbaa !63
  br label %Vec_PtrPush.exit

Vec_PtrPush.exit:                                 ; preds = %.Vec_PtrGrow.exit11_crit_edge.i, %Vec_PtrGrow.exit.i, %36
  %38 = phi i32 [ %7, %.Vec_PtrGrow.exit11_crit_edge.i ], [ %28, %36 ], [ 16, %Vec_PtrGrow.exit.i ]
  %39 = phi ptr [ %.pre.i, %.Vec_PtrGrow.exit11_crit_edge.i ], [ %37, %36 ], [ %26, %Vec_PtrGrow.exit.i ]
  %40 = add nsw i32 %8, 1
  store i32 %40, ptr %5, align 4, !tbaa !26
  %41 = sext i32 %8 to i64
  %42 = getelementptr inbounds ptr, ptr %39, i64 %41
  store ptr %16, ptr %42, align 8, !tbaa !23
  br label %43

43:                                               ; preds = %6, %Vec_PtrPush.exit
  %44 = phi i32 [ %7, %6 ], [ %38, %Vec_PtrPush.exit ]
  %45 = phi i32 [ %8, %6 ], [ %40, %Vec_PtrPush.exit ]
  %indvars.iv.next = add nuw nsw i64 %indvars.iv, 1
  %.val12 = load ptr, ptr %2, align 8, !tbaa !50
  %46 = getelementptr i8, ptr %.val12, i64 4
  %.val12.val = load i32, ptr %46, align 4, !tbaa !26
  %47 = sext i32 %.val12.val to i64
  %48 = icmp slt i64 %indvars.iv.next, %47
  br i1 %48, label %6, label %.critedge.loopexit, !llvm.loop !64

.critedge.loopexit:                               ; preds = %43
  %49 = icmp sgt i32 %45, 0
  %50 = select i1 %49, ptr %calloc.i, ptr null
  br label %.critedge

.critedge:                                        ; preds = %.critedge.loopexit, %1
  %.val = phi ptr [ %50, %.critedge.loopexit ], [ null, %1 ]
  ret ptr %.val
}